Certificate:
    Data:
        Version: 1 (0x0)
        Serial Number:
            7e:3b:f5:cc:c0:18:18:1b:16:58:8a:d1:d0:4f:9f:0a:8d:ca:04:24
        Signature Algorithm: sha256WithRSAEncryption
        Issuer: C=AU, ST=NSW, L=Sydney, O=Cube-o-Matic Pty. Ltd., CN=Luke Anderson, emailAddress=luke@lukeanderson.com.au
        Validity
            Not Before: Mar 29 01:13:47 2022 GMT
            Not After : Mar 26 01:13:47 2032 GMT
        Subject: C=AU, ST=NSW, L=Sydney, O=Cube-o-Matic Pty. Ltd., CN=Luke Anderson, emailAddress=luke@lukeanderson.com.au
        Subject Public Key Info:
            Public Key Algorithm: rsaEncryption
                Public-Key: (2048 bit)
                Modulus:
                    00:b3:c0:74:51:54:40:48:f0:6c:fc:4f:85:fa:b9:
                    11:f9:ea:c4:b1:97:59:1e:9e:d0:10:b5:00:7e:10:
                    53:a1:f2:a8:bd:b7:5b:d8:59:3e:fa:a7:00:e0:f2:
                    ed:ab:ec:49:1e:8e:4b:5b:b4:78:11:55:c2:05:3e:
                    b8:68:ca:72:a2:90:63:a0:5c:8f:10:fa:ef:d4:86:
                    04:10:0b:3f:df:4d:8d:33:d3:a9:d7:8d:33:2e:69:
                    72:af:1a:3f:09:79:53:72:c0:b6:0e:7e:87:4c:cb:
                    f5:31:bd:b3:fd:0d:03:da:be:0f:63:fc:1d:b3:ff:
                    a3:45:de:e4:59:3a:01:ce:3d:36:11:53:b4:3b:81:
                    db:02:da:91:3b:14:d2:69:49:bc:e2:06:8e:1c:53:
                    97:9c:5c:38:5c:eb:55:85:fc:7b:d1:71:af:aa:bd:
                    2d:e2:ad:91:68:8f:0a:68:ad:39:a1:a2:21:76:49:
                    b7:ae:96:d3:00:2b:35:16:6e:91:09:f7:c9:bc:a4:
                    0e:22:c6:34:2c:41:a7:67:62:eb:26:b5:60:f6:c1:
                    35:64:46:4d:8d:b4:c8:f3:17:a1:4b:0a:9c:37:7d:
                    c2:57:e1:ef:96:05:b5:59:e6:11:01:09:4e:88:f7:
                    c7:31:da:41:26:69:40:38:1d:52:51:d3:4b:5c:bd:
                    cd:0f
                Exponent: 65537 (0x10001)
    Signature Algorithm: sha256WithRSAEncryption
    Signature Value:
        0a:a3:20:9d:98:63:17:76:c6:9d:e8:18:b6:0f:ce:73:84:38:
        2d:a4:f4:c8:f0:36:e2:e0:d5:29:37:8e:28:f7:b4:c9:77:a2:
        6f:3f:c4:3d:2e:fe:45:31:7a:fd:9c:2c:81:8c:06:d2:f4:5c:
        18:23:9d:c2:b5:4a:bc:40:80:06:dd:64:c3:ba:5a:52:5a:25:
        f3:e5:23:fc:06:c5:37:1c:81:66:d2:6b:77:31:91:a9:e4:4f:
        0e:b2:00:53:df:ef:7d:c3:4f:42:6d:e5:5b:84:85:f7:2e:79:
        de:75:97:94:65:29:fd:f2:27:20:cf:99:ed:dd:69:34:06:b8:
        ca:fb:12:fc:17:55:92:ea:cf:f4:ac:ae:ae:fc:eb:6d:aa:b7:
        0b:2c:d5:7a:ea:88:c8:9d:f2:b2:7d:41:ea:43:be:70:92:b4:
        ab:b0:31:c4:7d:0a:64:32:82:61:e9:83:48:cc:f0:b6:1d:b6:
        9c:f5:9d:b3:49:19:52:d9:ca:14:8c:1d:59:da:a3:fa:3a:06:
        f7:67:c8:2a:e8:12:c3:bf:cc:49:b3:ef:7d:6b:37:84:9d:c0:
        13:38:af:1c:af:0c:f8:b5:b7:be:af:78:7d:65:0e:57:18:30:
        d6:aa:09:d8:01:34:ce:6d:15:84:9e:f6:6e:3b:2c:b0:16:7d:
        3b:73:15:22
-----BEGIN CERTIFICATE-----
MIIDpTCCAo0CFH479czAGBgbFliK0dBPnwqNygQkMA0GCSqGSIb3DQEBCwUAMIGO
MQswCQYDVQQGEwJBVTEMMAoGA1UECAwDTlNXMQ8wDQYDVQQHDAZTeWRuZXkxHzAd
BgNVBAoMFkN1YmUtby1NYXRpYyBQdHkuIEx0ZC4xFjAUBgNVBAMMDUx1a2UgQW5k
ZXJzb24xJzAlBgkqhkiG9w0BCQEWGGx1a2VAbHVrZWFuZGVyc29uLmNvbS5hdTAe
Fw0yMjAzMjkwMTEzNDdaFw0zMjAzMjYwMTEzNDdaMIGOMQswCQYDVQQGEwJBVTEM
MAoGA1UECAwDTlNXMQ8wDQYDVQQHDAZTeWRuZXkxHzAdBgNVBAoMFkN1YmUtby1N
YXRpYyBQdHkuIEx0ZC4xFjAUBgNVBAMMDUx1a2UgQW5kZXJzb24xJzAlBgkqhkiG
9w0BCQEWGGx1a2VAbHVrZWFuZGVyc29uLmNvbS5hdTCCASIwDQYJKoZIhvcNAQEB
BQADggEPADCCAQoCggEBALPAdFFUQEjwbPxPhfq5EfnqxLGXWR6e0BC1AH4QU6Hy
qL23W9hZPvqnAODy7avsSR6OS1u0eBFVwgU+uGjKcqKQY6BcjxD679SGBBALP99N
jTPTqdeNMy5pcq8aPwl5U3LAtg5+h0zL9TG9s/0NA9q+D2P8HbP/o0Xe5Fk6Ac49
NhFTtDuB2wLakTsU0mlJvOIGjhxTl5xcOFzrVYX8e9Fxr6q9LeKtkWiPCmitOaGi
IXZJt66W0wArNRZukQn3ybykDiLGNCxBp2di6ya1YPbBNWRGTY20yPMXoUsKnDd9
wlfh75YFtVnmEQEJToj3xzHaQSZpQDgdUlHTS1y9zQ8CAwEAATANBgkqhkiG9w0B
AQsFAAOCAQEACqMgnZhjF3bGnegYtg/Oc4Q4LaT0yPA24uDVKTeOKPe0yXeibz/E
PS7+RTF6/ZwsgYwG0vRcGCOdwrVKvECABt1kw7paUlol8+Uj/AbFNxyBZtJrdzGR
qeRPDrIAU9/vfcNPQm3lW4SF9y553nWXlGUp/fInIM+Z7d1pNAa4yvsS/BdVkurP
9Kyurvzrbaq3CyzVeuqIyJ3ysn1B6kO+cJK0q7AxxH0KZDKCYemDSMzwth22nPWd
s0kZUtnKFIwdWdqj+joG92fIKugSw7/MSbPvfWs3hJ3AEzivHK8M+LW3vq94fWUO
Vxgw1qoJ2AE0zm0VhJ72bjsssBZ9O3MVIg==
-----END CERTIFICATE-----
